target datalayout = "e-m:e-p270:32:32-p271:32:32-p272:64:64-i64:64-i128:128-f80:128-n8:16:32:64-S128"
target triple = "x86_64-pc-linux-gnu"

%struct.sct_st = type { i32, ptr, i64, ptr, i64, i64, ptr, i64, i8, i8, ptr, i64, i32, i32, i32 }

@.str = private unnamed_addr constant [30 x i8] c"../openssl/crypto/ct/ct_sct.c\00", align 1
@__func__.SCT_set_version = private unnamed_addr constant [16 x i8] c"SCT_set_version\00", align 1

; Function Attrs: nounwind uwtable
define i32 @SCT_set_version(ptr noundef %0, i32 noundef %1) #0 {
  %3 = alloca i32, align 4
  %4 = alloca ptr, align 8
  %5 = alloca i32, align 4
  store ptr %0, ptr %4, align 8, !tbaa !3
  store i32 %1, ptr %5, align 4, !tbaa !21
  %6 = load i32, ptr %5, align 4, !tbaa !21
  %7 = icmp ne i32 %6, 0
  br i1 %7, label %8, label %9

8:                                                ; preds = %2
  call void @ERR_new()
  call void @ERR_set_debug(ptr noundef @.str, i32 noundef 54, ptr noundef @__func__.SCT_set_version)
  call void (i32, i32, ptr, ...) @ERR_set_error(i32 noundef 50, i32 noundef 103, ptr noundef null)
  store i32 0, ptr %3, align 4
  br label %15

9:                                                ; preds = %2
  %10 = load i32, ptr %5, align 4, !tbaa !21
  %11 = load ptr, ptr %4, align 8, !tbaa !3
  %12 = getelementptr inbounds nuw %struct.sct_st, ptr %11, i32 0, i32 0
  store i32 %10, ptr %12, align 8, !tbaa !13
  %13 = load ptr, ptr %4, align 8, !tbaa !3
  %14 = getelementptr inbounds nuw %struct.sct_st, ptr %13, i32 0, i32 14
  store i32 0, ptr %14, align 8, !tbaa !22
  store i32 1, ptr %3, align 4
  br label %15

15:                                               ; preds = %9, %8
  %16 = load i32, ptr %3, align 4
  ret i32 %16
}