; Function Attrs: nounwind uwtable
define range(i32 0, 2) i32 @SCT_set_version(ptr noundef writeonly captures(none) %0, i32 noundef %1) local_unnamed_addr #0 {
  %.not = icmp eq i32 %1, 0
  br i1 %.not, label %4, label %3

3:                                                ; preds = %2
  tail call void @ERR_new() #7
  tail call void @ERR_set_debug(ptr noundef nonnull @.str, i32 noundef 54, ptr noundef nonnull @__func__.SCT_set_version) #7
  tail call void (i32, i32, ptr, ...) @ERR_set_error(i32 noundef 50, i32 noundef 103, ptr noundef null) #7
  br label %6

4:                                                ; preds = %2
  store i32 0, ptr %0, align 8, !tbaa !11
  %5 = getelementptr inbounds nuw i8, ptr %0, i64 96
  store i32 0, ptr %5, align 8, !tbaa !16
  br label %6

6:                                                ; preds = %4, %3
  %.0 = phi i32 [ 0, %3 ], [ 1, %4 ]
  ret i32 %.0
}